target datalayout = "e-m:e-p270:32:32-p271:32:32-p272:64:64-i64:64-i128:128-f80:128-n8:16:32:64-S128"
target triple = "x86_64-pc-linux-gnu"

@.str.50 = private unnamed_addr constant [5 x i8] c"%s%d\00", align 1

; Function Attrs: nounwind uwtable
define dso_local ptr @ChooseRelationName(ptr noundef %0, ptr noundef %1, ptr noundef %2, i32 noundef %3, i1 noundef zeroext %4) #0 {
  %6 = alloca ptr, align 8
  %7 = alloca ptr, align 8
  %8 = alloca ptr, align 8
  %9 = alloca i32, align 4
  %10 = alloca i8, align 1
  %11 = alloca i32, align 4
  %12 = alloca ptr, align 8
  %13 = alloca [64 x i8], align 16
  store ptr %0, ptr %6, align 8
  store ptr %1, ptr %7, align 8
  store ptr %2, ptr %8, align 8
  store i32 %3, ptr %9, align 4
  %14 = zext i1 %4 to i8
  store i8 %14, ptr %10, align 1
  call void @llvm.lifetime.start.p0(i64 4, ptr %11) #10
  store i32 0, ptr %11, align 4
  call void @llvm.lifetime.start.p0(i64 8, ptr %12) #10
  store ptr null, ptr %12, align 8
  call void @llvm.lifetime.start.p0(i64 64, ptr %13) #10
  %15 = getelementptr inbounds [64 x i8], ptr %13, i64 0, i64 0
  %16 = load ptr, ptr %8, align 8
  %17 = call i64 @strlcpy(ptr noundef %15, ptr noundef %16, i64 noundef 64)
  br label %18

18:                                               ; preds = %36, %5
  %19 = load ptr, ptr %6, align 8
  %20 = load ptr, ptr %7, align 8
  %21 = getelementptr inbounds [64 x i8], ptr %13, i64 0, i64 0
  %22 = call ptr @makeObjectName(ptr noundef %19, ptr noundef %20, ptr noundef %21)
  store ptr %22, ptr %12, align 8
  %23 = load ptr, ptr %12, align 8
  %24 = load i32, ptr %9, align 4
  %25 = call i32 @get_relname_relid(ptr noundef %23, i32 noundef %24)
  %26 = icmp ne i32 %25, 0
  br i1 %26, label %36, label %27

27:                                               ; preds = %18
  %28 = load i8, ptr %10, align 1, !range !4, !noundef !5
  %29 = trunc i8 %28 to i1
  br i1 %29, label %30, label %34

30:                                               ; preds = %27
  %31 = load ptr, ptr %12, align 8
  %32 = load i32, ptr %9, align 4
  %33 = call zeroext i1 @ConstraintNameExists(ptr noundef %31, i32 noundef %32)
  br i1 %33, label %35, label %34

34:                                               ; preds = %30, %27
  br label %43

35:                                               ; preds = %30
  br label %36

36:                                               ; preds = %35, %18
  %37 = load ptr, ptr %12, align 8
  call void @pfree(ptr noundef %37)
  %38 = getelementptr inbounds [64 x i8], ptr %13, i64 0, i64 0
  %39 = load ptr, ptr %8, align 8
  %40 = load i32, ptr %11, align 4
  %41 = add i32 %40, 1
  store i32 %41, ptr %11, align 4
  %42 = call i32 (ptr, i64, ptr, ...) @pg_snprintf(ptr noundef %38, i64 noundef 64, ptr noundef @.str.50, ptr noundef %39, i32 noundef %41)
  br label %18

43:                                               ; preds = %34
  %44 = load ptr, ptr %12, align 8
  call void @llvm.lifetime.end.p0(i64 64, ptr %13) #10
  call void @llvm.lifetime.end.p0(i64 8, ptr %12) #10
  call void @llvm.lifetime.end.p0(i64 4, ptr %11) #10
  ret ptr %44
}