; Function Attrs: nounwind uwtable
define dso_local noundef ptr @ChooseRelationName(ptr noundef %0, ptr noundef %1, ptr noundef %2, i32 noundef %3, i1 noundef zeroext %4) local_unnamed_addr #0 {
  %6 = alloca [64 x i8], align 16
  call void @llvm.lifetime.start.p0(i64 64, ptr nonnull %6) #11
  %7 = call i64 @strlcpy(ptr noundef nonnull dereferenceable(1) %6, ptr noundef nonnull dereferenceable(1) %2, i64 noundef 64) #11
  br i1 %4, label %.split.us, label %.split

.split.us:                                        ; preds = %5, %12
  %.0.us = phi i32 [ %13, %12 ], [ 0, %5 ]
  %8 = call ptr @makeObjectName(ptr noundef %0, ptr noundef %1, ptr noundef nonnull %6)
  %9 = call i32 @get_relname_relid(ptr noundef %8, i32 noundef %3) #11
  %.not.us = icmp eq i32 %9, 0
  br i1 %.not.us, label %10, label %12

10:                                               ; preds = %.split.us
  %11 = call zeroext i1 @ConstraintNameExists(ptr noundef %8, i32 noundef %3) #11
  br i1 %11, label %12, label %.split12.us

12:                                               ; preds = %10, %.split.us
  call void @pfree(ptr noundef %8) #11
  %13 = add i32 %.0.us, 1
  %14 = call i32 (ptr, i64, ptr, ...) @pg_snprintf(ptr noundef nonnull %6, i64 noundef 64, ptr noundef nonnull @.str.50, ptr noundef nonnull %2, i32 noundef %13) #11
  br label %.split.us

.split:                                           ; preds = %5
  %15 = call ptr @makeObjectName(ptr noundef %0, ptr noundef %1, ptr noundef nonnull %6)
  %16 = call i32 @get_relname_relid(ptr noundef %15, i32 noundef %3) #11
  %.not13 = icmp eq i32 %16, 0
  br i1 %.not13, label %.split12.us, label %.lr.ph

.lr.ph:                                           ; preds = %.split, %.lr.ph
  %17 = phi ptr [ %20, %.lr.ph ], [ %15, %.split ]
  %.014 = phi i32 [ %18, %.lr.ph ], [ 0, %.split ]
  call void @pfree(ptr noundef %17) #11
  %18 = add i32 %.014, 1
  %19 = call i32 (ptr, i64, ptr, ...) @pg_snprintf(ptr noundef nonnull %6, i64 noundef 64, ptr noundef nonnull @.str.50, ptr noundef nonnull %2, i32 noundef %18) #11
  %20 = call ptr @makeObjectName(ptr noundef %0, ptr noundef %1, ptr noundef nonnull %6)
  %21 = call i32 @get_relname_relid(ptr noundef %20, i32 noundef %3) #11
  %.not = icmp eq i32 %21, 0
  br i1 %.not, label %.split12.us, label %.lr.ph

.split12.us:                                      ; preds = %.lr.ph, %10, %.split
  %.us-phi = phi ptr [ %15, %.split ], [ %8, %10 ], [ %20, %.lr.ph ]
  call void @llvm.lifetime.end.p0(i64 64, ptr nonnull %6) #11
  ret ptr %.us-phi
}